target datalayout = "e-m:e-p270:32:32-p271:32:32-p272:64:64-i64:64-i128:128-f80:128-n8:16:32:64-S128"
target triple = "x86_64-pc-linux-gnu"

%"class.smt::eq_justification" = type { ptr }
%"class.smt::justification.base" = type <{ ptr, i8 }>
%class.ref_vector.48 = type { %class.ref_vector_core.49 }
%class.ref_vector_core.49 = type { %class.ref_manager_wrapper.50, %class.ptr_vector.51 }
%class.ref_manager_wrapper.50 = type { ptr }
%class.ptr_vector.51 = type { %class.vector.52 }
%class.vector.52 = type { ptr }
%class.ptr_vector.165 = type { %class.vector.166 }
%class.vector.166 = type { ptr }
%class.ptr_vector.163 = type { %class.vector.164 }
%class.vector.164 = type { ptr }
%class.ptr_vector = type { %class.vector.3 }
%class.vector.3 = type { ptr }
%class.svector.4 = type { %class.vector.5 }
%class.vector.5 = type { ptr }
%class.obj_ref.80 = type { ptr, ptr }
%class.svector.194 = type { %class.vector.195 }
%class.vector.195 = type { ptr }
%class.ref_vector = type { %class.ref_vector_core }
%class.ref_vector_core = type { %class.ref_manager_wrapper, %class.ptr_vector }
%class.ref_manager_wrapper = type { ptr }
%class.ref_vector.151 = type { %class.ref_vector_core.152 }
%class.ref_vector_core.152 = type { %class.ref_manager_wrapper.153, %class.ptr_vector.154 }
%class.ref_manager_wrapper.153 = type { ptr }
%class.ptr_vector.154 = type { %class.vector.155 }
%class.vector.155 = type { ptr }
%"class.smt::conflict_resolution" = type <{ ptr, ptr, ptr, ptr, ptr, ptr, i32, [4 x i8], %class.svector.194, %class.ref_vector, i32, i32, %class.ptr_vector.165, i32, [4 x i8], %class.svector.286, %class.obj_pair_set, ptr, ptr, %class.svector.289, %class.obj_map.291, %class.obj_pair_map.296, %class.map.301, %class.ref_vector.48, %class.ref_vector.151, %class.obj_ref.80, %class.svector.194, %class.svector.194, %class.svector.4, %class.svector.4, %class.approx_set_tpl, [4 x i8] }>
%class.svector.286 = type { %class.vector.287 }
%class.vector.287 = type { ptr }
%class.obj_pair_set = type { %class.chashtable.288 }
%class.chashtable.288 = type { ptr, i32, i32, i32, i32, i32, i32, i32, ptr, ptr, ptr }
%class.svector.289 = type { %class.vector.290 }
%class.vector.290 = type { ptr }
%class.obj_map.291 = type { %class.core_hashtable.292 }
%class.core_hashtable.292 = type <{ ptr, i32, i32, i32, [4 x i8] }>
%class.obj_pair_map.296 = type { %class.core_hashtable.297 }
%class.core_hashtable.297 = type <{ ptr, i32, i32, i32, [4 x i8] }>
%class.map.301 = type { %class.table2map.302 }
%class.table2map.302 = type { %class.core_hashtable.303 }
%class.core_hashtable.303 = type <{ ptr, i32, i32, i32, [4 x i8] }>
%class.approx_set_tpl = type { i32 }
%"class.smt::eq_conflict_justification" = type { %"class.smt::justification.base", ptr, ptr, %"class.smt::eq_justification" }
%"struct.std::pair" = type { ptr, ptr }
%"class.smt::enode" = type { ptr, ptr, ptr, ptr, i32, i32, i32, i16, i32, i8, i8, %class.ptr_vector.163, %class.id_var_list, %"struct.smt::trans_justification", %class.approx_set, %class.approx_set, [0 x ptr] }
%class.id_var_list = type { i32, ptr }
%"struct.smt::trans_justification" = type { ptr, %"class.smt::eq_justification" }
%class.approx_set = type { %class.approx_set_tpl.307 }
%class.approx_set_tpl.307 = type { i64 }
%class.ast = type { i32, i32, i32, i32 }

; Function Attrs: mustprogress nounwind uwtable
define linkonce_odr hidden noundef i32 @_ZNK3ast6get_idEv(ptr noundef nonnull align 4 dereferenceable(16) %0) #4 comdat align 2 {
  %2 = alloca ptr, align 8
  store ptr %0, ptr %2, align 8, !tbaa !531
  %3 = load ptr, ptr %2, align 8
  %4 = getelementptr inbounds nuw %class.ast, ptr %3, i32 0, i32 0
  %5 = load i32, ptr %4, align 4, !tbaa !809
  ret i32 %5
}

; Function Attrs: mustprogress uwtable
define linkonce_odr hidden noundef nonnull align 8 dereferenceable(8) ptr @_ZN6vectorISt4pairIPN3smt5enodeES3_ELb0EjE9push_backERKS4_(ptr noundef nonnull align 8 dereferenceable(8) %0, ptr noundef nonnull align 8 dereferenceable(16) %1) #6 comdat align 2 {
  %3 = alloca ptr, align 8
  %4 = alloca ptr, align 8
  store ptr %0, ptr %3, align 8, !tbaa !806
  store ptr %1, ptr %4, align 8, !tbaa !723
  %5 = load ptr, ptr %3, align 8
  %6 = getelementptr inbounds nuw %class.vector.287, ptr %5, i32 0, i32 0
  %7 = load ptr, ptr %6, align 8, !tbaa !808
  %8 = icmp eq ptr %7, null
  br i1 %8, label %19, label %9

9:                                                ; preds = %2
  %10 = getelementptr inbounds nuw %class.vector.287, ptr %5, i32 0, i32 0
  %11 = load ptr, ptr %10, align 8, !tbaa !808
  %12 = getelementptr inbounds i32, ptr %11, i64 -1
  %13 = load i32, ptr %12, align 4, !tbaa !8
  %14 = getelementptr inbounds nuw %class.vector.287, ptr %5, i32 0, i32 0
  %15 = load ptr, ptr %14, align 8, !tbaa !808
  %16 = getelementptr inbounds i32, ptr %15, i64 -2
  %17 = load i32, ptr %16, align 4, !tbaa !8
  %18 = icmp eq i32 %13, %17
  br i1 %18, label %19, label %20

19:                                               ; preds = %9, %2
  call void @_ZN6vectorISt4pairIPN3smt5enodeES3_ELb0EjE13expand_vectorEv(ptr noundef nonnull align 8 dereferenceable(8) %5)
  br label %20

20:                                               ; preds = %19, %9
  %21 = getelementptr inbounds nuw %class.vector.287, ptr %5, i32 0, i32 0
  %22 = load ptr, ptr %21, align 8, !tbaa !808
  %23 = getelementptr inbounds nuw %class.vector.287, ptr %5, i32 0, i32 0
  %24 = load ptr, ptr %23, align 8, !tbaa !808
  %25 = getelementptr inbounds i32, ptr %24, i64 -1
  %26 = load i32, ptr %25, align 4, !tbaa !8
  %27 = zext i32 %26 to i64
  %28 = getelementptr inbounds nuw %"struct.std::pair", ptr %22, i64 %27
  %29 = load ptr, ptr %4, align 8, !tbaa !723
  call void @llvm.memcpy.p0.p0.i64(ptr align 8 %28, ptr align 8 %29, i64 16, i1 false)
  %30 = getelementptr inbounds nuw %class.vector.287, ptr %5, i32 0, i32 0
  %31 = load ptr, ptr %30, align 8, !tbaa !808
  %32 = getelementptr inbounds i32, ptr %31, i64 -1
  %33 = load i32, ptr %32, align 4, !tbaa !8
  %34 = add i32 %33, 1
  store i32 %34, ptr %32, align 4, !tbaa !8
  ret ptr %5
}

; Function Attrs: mustprogress uwtable
define linkonce_odr hidden noundef zeroext i1 @_ZN12obj_pair_setIN3smt5enodeES1_E19insert_if_not_thereERKSt4pairIPS1_S4_E(ptr noundef nonnull align 8 dereferenceable(64) %0, ptr noundef nonnull align 8 dereferenceable(16) %1) #6 comdat align 2 {
  %3 = alloca ptr, align 8
  %4 = alloca ptr, align 8
  store ptr %0, ptr %3, align 8, !tbaa !804
  store ptr %1, ptr %4, align 8, !tbaa !723
  %5 = load ptr, ptr %3, align 8
  %6 = getelementptr inbounds nuw %class.obj_pair_set, ptr %5, i32 0, i32 0
  %7 = load ptr, ptr %4, align 8, !tbaa !723
  %8 = call noundef zeroext i1 @_ZN10chashtableISt4pairIPN3smt5enodeES3_EN12obj_pair_setIS2_S2_E9hash_procENS6_7eq_procEE20insert_if_not_there2ERKS4_(ptr noundef nonnull align 8 dereferenceable(64) %6, ptr noundef nonnull align 8 dereferenceable(16) %7)
  ret i1 %8
}

; Function Attrs: mustprogress nounwind uwtable
define linkonce_odr hidden void @_ZNSt4pairIPN3smt5enodeES2_EC2IRS2_S5_Qcl16_S_constructibleITL0__TL0_0_EEEEOT_OT0_(ptr noundef nonnull align 8 dereferenceable(16) %0, ptr noundef nonnull align 8 dereferenceable(8) %1, ptr noundef nonnull align 8 dereferenceable(8) %2) unnamed_addr #4 comdat align 2 {
  %4 = alloca ptr, align 8
  %5 = alloca ptr, align 8
  %6 = alloca ptr, align 8
  store ptr %0, ptr %4, align 8, !tbaa !723
  store ptr %1, ptr %5, align 8, !tbaa !803
  store ptr %2, ptr %6, align 8, !tbaa !803
  %7 = load ptr, ptr %4, align 8
  %8 = getelementptr inbounds nuw %"struct.std::pair", ptr %7, i32 0, i32 0
  %9 = load ptr, ptr %5, align 8, !tbaa !803
  %10 = load ptr, ptr %9, align 8, !tbaa !582
  store ptr %10, ptr %8, align 8, !tbaa !727
  %11 = getelementptr inbounds nuw %"struct.std::pair", ptr %7, i32 0, i32 1
  %12 = load ptr, ptr %6, align 8, !tbaa !803
  %13 = load ptr, ptr %12, align 8, !tbaa !582
  store ptr %13, ptr %11, align 8, !tbaa !729
  ret void
}

; Function Attrs: inlinehint mustprogress nounwind uwtable
define linkonce_odr hidden void @_ZSt4swapIPN3smt5enodeEENSt9enable_ifIXsr6__and_ISt6__not_ISt15__is_tuple_likeIT_EESt21is_move_constructibleIS6_ESt18is_move_assignableIS6_EEE5valueEvE4typeERS6_SF_(ptr noundef nonnull align 8 dereferenceable(8) %0, ptr noundef nonnull align 8 dereferenceable(8) %1) #9 comdat {
  %3 = alloca ptr, align 8
  %4 = alloca ptr, align 8
  %5 = alloca ptr, align 8
  store ptr %0, ptr %3, align 8, !tbaa !803
  store ptr %1, ptr %4, align 8, !tbaa !803
  call void @llvm.lifetime.start.p0(i64 8, ptr %5) #3
  %6 = load ptr, ptr %3, align 8, !tbaa !803
  %7 = load ptr, ptr %6, align 8, !tbaa !582
  store ptr %7, ptr %5, align 8, !tbaa !582
  %8 = load ptr, ptr %4, align 8, !tbaa !803
  %9 = load ptr, ptr %8, align 8, !tbaa !582
  %10 = load ptr, ptr %3, align 8, !tbaa !803
  store ptr %9, ptr %10, align 8, !tbaa !582
  %11 = load ptr, ptr %5, align 8, !tbaa !582
  %12 = load ptr, ptr %4, align 8, !tbaa !803
  store ptr %11, ptr %12, align 8, !tbaa !582
  call void @llvm.lifetime.end.p0(i64 8, ptr %5) #3
  ret void
}

; Function Attrs: mustprogress uwtable
define linkonce_odr hidden noundef i32 @_ZNK3smt5enode12get_owner_idEv(ptr noundef nonnull align 8 dereferenceable(112) %0) #6 comdat align 2 {
  %2 = alloca ptr, align 8
  store ptr %0, ptr %2, align 8, !tbaa !582
  %3 = load ptr, ptr %2, align 8
  %4 = getelementptr inbounds nuw %"class.smt::enode", ptr %3, i32 0, i32 0
  %5 = load ptr, ptr %4, align 8, !tbaa !641
  %6 = call noundef i32 @_ZNK3ast6get_idEv(ptr noundef nonnull align 4 dereferenceable(16) %5)
  ret i32 %6
}

; Function Attrs: mustprogress uwtable
define linkonce_odr hidden void @_ZN3smt19conflict_resolution17mark_justified_eqEPNS_5enodeES2_NS_16eq_justificationE(ptr noundef nonnull align 8 dereferenceable(356) %0, ptr noundef %1, ptr noundef %2, ptr %3) #6 comdat align 2 {
  %5 = alloca %"class.smt::eq_justification", align 8
  %6 = alloca ptr, align 8
  %7 = alloca ptr, align 8
  %8 = alloca ptr, align 8
  %9 = alloca %"class.smt::eq_justification", align 8
  %10 = getelementptr inbounds nuw %"class.smt::eq_justification", ptr %5, i32 0, i32 0
  store ptr %3, ptr %10, align 8
  store ptr %0, ptr %6, align 8, !tbaa !533
  store ptr %1, ptr %7, align 8, !tbaa !582
  store ptr %2, ptr %8, align 8, !tbaa !582
  %11 = load ptr, ptr %6, align 8
  %12 = load ptr, ptr %7, align 8, !tbaa !582
  %13 = load ptr, ptr %8, align 8, !tbaa !582
  call void @llvm.memcpy.p0.p0.i64(ptr align 8 %9, ptr align 8 %5, i64 8, i1 false), !tbaa.struct !581
  %14 = getelementptr inbounds nuw %"class.smt::eq_justification", ptr %9, i32 0, i32 0
  %15 = load ptr, ptr %14, align 8
  call void @_ZN3smt19conflict_resolution25eq_justification2literalsEPNS_5enodeES2_NS_16eq_justificationE(ptr noundef nonnull align 8 dereferenceable(356) %11, ptr noundef %12, ptr noundef %13, ptr %15)
  ret void
}

; Function Attrs: mustprogress uwtable
define linkonce_odr hidden void @_ZN3smt19conflict_resolution7mark_eqEPNS_5enodeES2_(ptr noundef nonnull align 8 dereferenceable(356) %0, ptr noundef %1, ptr noundef %2) #6 comdat align 2 {
  %4 = alloca ptr, align 8
  %5 = alloca ptr, align 8
  %6 = alloca ptr, align 8
  %7 = alloca %"struct.std::pair", align 8
  store ptr %0, ptr %4, align 8, !tbaa !533
  store ptr %1, ptr %5, align 8, !tbaa !582
  store ptr %2, ptr %6, align 8, !tbaa !582
  %8 = load ptr, ptr %4, align 8
  %9 = load ptr, ptr %5, align 8, !tbaa !582
  %10 = load ptr, ptr %6, align 8, !tbaa !582
  %11 = icmp ne ptr %9, %10
  br i1 %11, label %12, label %26

12:                                               ; preds = %3
  %13 = load ptr, ptr %5, align 8, !tbaa !582
  %14 = call noundef i32 @_ZNK3smt5enode12get_owner_idEv(ptr noundef nonnull align 8 dereferenceable(112) %13)
  %15 = load ptr, ptr %6, align 8, !tbaa !582
  %16 = call noundef i32 @_ZNK3smt5enode12get_owner_idEv(ptr noundef nonnull align 8 dereferenceable(112) %15)
  %17 = icmp ugt i32 %14, %16
  br i1 %17, label %18, label %19

18:                                               ; preds = %12
  call void @_ZSt4swapIPN3smt5enodeEENSt9enable_ifIXsr6__and_ISt6__not_ISt15__is_tuple_likeIT_EESt21is_move_constructibleIS6_ESt18is_move_assignableIS6_EEE5valueEvE4typeERS6_SF_(ptr noundef nonnull align 8 dereferenceable(8) %5, ptr noundef nonnull align 8 dereferenceable(8) %6) #3
  br label %19

19:                                               ; preds = %18, %12
  call void @llvm.lifetime.start.p0(i64 16, ptr %7) #3
  call void @_ZNSt4pairIPN3smt5enodeES2_EC2IRS2_S5_Qcl16_S_constructibleITL0__TL0_0_EEEEOT_OT0_(ptr noundef nonnull align 8 dereferenceable(16) %7, ptr noundef nonnull align 8 dereferenceable(8) %5, ptr noundef nonnull align 8 dereferenceable(8) %6) #3
  %20 = getelementptr inbounds nuw %"class.smt::conflict_resolution", ptr %8, i32 0, i32 16
  %21 = call noundef zeroext i1 @_ZN12obj_pair_setIN3smt5enodeES1_E19insert_if_not_thereERKSt4pairIPS1_S4_E(ptr noundef nonnull align 8 dereferenceable(64) %20, ptr noundef nonnull align 8 dereferenceable(16) %7)
  br i1 %21, label %22, label %25

22:                                               ; preds = %19
  %23 = getelementptr inbounds nuw %"class.smt::conflict_resolution", ptr %8, i32 0, i32 15
  %24 = call noundef nonnull align 8 dereferenceable(8) ptr @_ZN6vectorISt4pairIPN3smt5enodeES3_ELb0EjE9push_backERKS4_(ptr noundef nonnull align 8 dereferenceable(8) %23, ptr noundef nonnull align 8 dereferenceable(16) %7)
  br label %25

25:                                               ; preds = %22, %19
  call void @llvm.lifetime.end.p0(i64 16, ptr %7) #3
  br label %26

26:                                               ; preds = %25, %3
  ret void
}

; Function Attrs: mustprogress nounwind uwtable
define linkonce_odr hidden noundef ptr @_ZNK3smt5enode8get_rootEv(ptr noundef nonnull align 8 dereferenceable(112) %0) #4 comdat align 2 {
  %2 = alloca ptr, align 8
  store ptr %0, ptr %2, align 8, !tbaa !582
  %3 = load ptr, ptr %2, align 8
  %4 = getelementptr inbounds nuw %"class.smt::enode", ptr %3, i32 0, i32 1
  %5 = load ptr, ptr %4, align 8, !tbaa !583
  ret ptr %5
}

; Function Attrs: mustprogress uwtable
define hidden void @_ZN3smt25eq_conflict_justification15get_antecedentsERNS_19conflict_resolutionE(ptr noundef nonnull align 8 dereferenceable(40) %0, ptr noundef nonnull align 8 dereferenceable(356) %1) unnamed_addr #6 align 2 {
  %3 = alloca ptr, align 8
  %4 = alloca ptr, align 8
  %5 = alloca %"class.smt::eq_justification", align 8
  store ptr %0, ptr %3, align 8, !tbaa !576
  store ptr %1, ptr %4, align 8, !tbaa !533
  %6 = load ptr, ptr %3, align 8
  %7 = load ptr, ptr %4, align 8, !tbaa !533
  %8 = getelementptr inbounds nuw %"class.smt::eq_conflict_justification", ptr %6, i32 0, i32 1
  %9 = load ptr, ptr %8, align 8, !tbaa !578
  %10 = getelementptr inbounds nuw %"class.smt::eq_conflict_justification", ptr %6, i32 0, i32 1
  %11 = load ptr, ptr %10, align 8, !tbaa !578
  %12 = call noundef ptr @_ZNK3smt5enode8get_rootEv(ptr noundef nonnull align 8 dereferenceable(112) %11)
  call void @_ZN3smt19conflict_resolution7mark_eqEPNS_5enodeES2_(ptr noundef nonnull align 8 dereferenceable(356) %7, ptr noundef %9, ptr noundef %12)
  %13 = load ptr, ptr %4, align 8, !tbaa !533
  %14 = getelementptr inbounds nuw %"class.smt::eq_conflict_justification", ptr %6, i32 0, i32 2
  %15 = load ptr, ptr %14, align 8, !tbaa !580
  %16 = getelementptr inbounds nuw %"class.smt::eq_conflict_justification", ptr %6, i32 0, i32 2
  %17 = load ptr, ptr %16, align 8, !tbaa !580
  %18 = call noundef ptr @_ZNK3smt5enode8get_rootEv(ptr noundef nonnull align 8 dereferenceable(112) %17)
  call void @_ZN3smt19conflict_resolution7mark_eqEPNS_5enodeES2_(ptr noundef nonnull align 8 dereferenceable(356) %13, ptr noundef %15, ptr noundef %18)
  %19 = load ptr, ptr %4, align 8, !tbaa !533
  %20 = getelementptr inbounds nuw %"class.smt::eq_conflict_justification", ptr %6, i32 0, i32 1
  %21 = load ptr, ptr %20, align 8, !tbaa !578
  %22 = getelementptr inbounds nuw %"class.smt::eq_conflict_justification", ptr %6, i32 0, i32 2
  %23 = load ptr, ptr %22, align 8, !tbaa !580
  %24 = getelementptr inbounds nuw %"class.smt::eq_conflict_justification", ptr %6, i32 0, i32 3
  call void @llvm.memcpy.p0.p0.i64(ptr align 8 %5, ptr align 8 %24, i64 8, i1 false), !tbaa.struct !581
  %25 = getelementptr inbounds nuw %"class.smt::eq_justification", ptr %5, i32 0, i32 0
  %26 = load ptr, ptr %25, align 8
  call void @_ZN3smt19conflict_resolution17mark_justified_eqEPNS_5enodeES2_NS_16eq_justificationE(ptr noundef nonnull align 8 dereferenceable(356) %19, ptr noundef %21, ptr noundef %23, ptr %26)
  ret void
}