; Function Attrs: mustprogress uwtable
define hidden void @_ZN3smt25eq_conflict_justification15get_antecedentsERNS_19conflict_resolutionE(ptr noundef nonnull readonly align 8 captures(none) dereferenceable(40) %0, ptr noundef nonnull align 8 dereferenceable(356) %1) unnamed_addr #5 align 2 {
  %3 = alloca %"struct.std::pair", align 8
  %4 = alloca %"struct.std::pair", align 8
  %5 = getelementptr inbounds nuw i8, ptr %0, i64 16
  %6 = load ptr, ptr %5, align 8, !tbaa !93
  %7 = getelementptr inbounds nuw i8, ptr %6, i64 8
  %8 = load ptr, ptr %7, align 8, !tbaa !97
  %.not.i = icmp eq ptr %6, %8
  br i1 %.not.i, label %_ZN3smt19conflict_resolution7mark_eqEPNS_5enodeES2_.exit, label %9

9:                                                ; preds = %2
  %10 = load ptr, ptr %6, align 8, !tbaa !109
  %11 = load i32, ptr %10, align 4, !tbaa !110
  %12 = load ptr, ptr %8, align 8, !tbaa !109
  %13 = load i32, ptr %12, align 4, !tbaa !110
  %14 = icmp ugt i32 %11, %13
  %spec.select.i = select i1 %14, ptr %8, ptr %6
  %spec.select6.i = select i1 %14, ptr %6, ptr %8
  call void @llvm.lifetime.start.p0(i64 16, ptr nonnull %4) #22
  store ptr %spec.select.i, ptr %4, align 8, !tbaa !111
  %15 = getelementptr inbounds nuw i8, ptr %4, i64 8
  store ptr %spec.select6.i, ptr %15, align 8, !tbaa !113
  %16 = getelementptr inbounds nuw i8, ptr %1, i64 112
  %17 = call noundef zeroext i1 @_ZN10chashtableISt4pairIPN3smt5enodeES3_EN12obj_pair_setIS2_S2_E9hash_procENS6_7eq_procEE20insert_if_not_there2ERKS4_(ptr noundef nonnull align 8 dereferenceable(64) %16, ptr noundef nonnull align 8 dereferenceable(16) %4)
  br i1 %17, label %18, label %37

18:                                               ; preds = %9
  %19 = getelementptr inbounds nuw i8, ptr %1, i64 104
  %20 = load ptr, ptr %19, align 8, !tbaa !114
  %21 = icmp eq ptr %20, null
  br i1 %21, label %28, label %22

22:                                               ; preds = %18
  %23 = getelementptr inbounds i8, ptr %20, i64 -4
  %24 = load i32, ptr %23, align 4, !tbaa !29
  %25 = getelementptr inbounds i8, ptr %20, i64 -8
  %26 = load i32, ptr %25, align 4, !tbaa !29
  %27 = icmp eq i32 %24, %26
  br i1 %27, label %28, label %_ZN6vectorISt4pairIPN3smt5enodeES3_ELb0EjE9push_backERKS4_.exit.i

28:                                               ; preds = %22, %18
  call void @_ZN6vectorISt4pairIPN3smt5enodeES3_ELb0EjE13expand_vectorEv(ptr noundef nonnull align 8 dereferenceable(8) %19)
  %.pre.i.i = load ptr, ptr %19, align 8, !tbaa !114
  %.phi.trans.insert.i.i = getelementptr inbounds i8, ptr %.pre.i.i, i64 -4
  %.pre2.i.i = load i32, ptr %.phi.trans.insert.i.i, align 4, !tbaa !29
  br label %_ZN6vectorISt4pairIPN3smt5enodeES3_ELb0EjE9push_backERKS4_.exit.i

_ZN6vectorISt4pairIPN3smt5enodeES3_ELb0EjE9push_backERKS4_.exit.i: ; preds = %28, %22
  %29 = phi i32 [ %.pre2.i.i, %28 ], [ %24, %22 ]
  %30 = phi ptr [ %.pre.i.i, %28 ], [ %20, %22 ]
  %31 = zext i32 %29 to i64
  %32 = getelementptr inbounds nuw %"struct.std::pair", ptr %30, i64 %31
  call void @llvm.memcpy.p0.p0.i64(ptr noundef nonnull align 8 dereferenceable(16) %32, ptr noundef nonnull align 8 dereferenceable(16) %4, i64 16, i1 false)
  %33 = load ptr, ptr %19, align 8, !tbaa !114
  %34 = getelementptr inbounds i8, ptr %33, i64 -4
  %35 = load i32, ptr %34, align 4, !tbaa !29
  %36 = add i32 %35, 1
  store i32 %36, ptr %34, align 4, !tbaa !29
  br label %37

37:                                               ; preds = %_ZN6vectorISt4pairIPN3smt5enodeES3_ELb0EjE9push_backERKS4_.exit.i, %9
  call void @llvm.lifetime.end.p0(i64 16, ptr nonnull %4) #22
  br label %_ZN3smt19conflict_resolution7mark_eqEPNS_5enodeES2_.exit

_ZN3smt19conflict_resolution7mark_eqEPNS_5enodeES2_.exit: ; preds = %2, %37
  %38 = getelementptr inbounds nuw i8, ptr %0, i64 24
  %39 = load ptr, ptr %38, align 8, !tbaa !115
  %40 = getelementptr inbounds nuw i8, ptr %39, i64 8
  %41 = load ptr, ptr %40, align 8, !tbaa !97
  %.not.i4 = icmp eq ptr %39, %41
  br i1 %.not.i4, label %_ZN3smt19conflict_resolution7mark_eqEPNS_5enodeES2_.exit11, label %42

42:                                               ; preds = %_ZN3smt19conflict_resolution7mark_eqEPNS_5enodeES2_.exit
  %43 = load ptr, ptr %39, align 8, !tbaa !109
  %44 = load i32, ptr %43, align 4, !tbaa !110
  %45 = load ptr, ptr %41, align 8, !tbaa !109
  %46 = load i32, ptr %45, align 4, !tbaa !110
  %47 = icmp ugt i32 %44, %46
  %spec.select.i5 = select i1 %47, ptr %41, ptr %39
  %spec.select6.i6 = select i1 %47, ptr %39, ptr %41
  call void @llvm.lifetime.start.p0(i64 16, ptr nonnull %3) #22
  store ptr %spec.select.i5, ptr %3, align 8, !tbaa !111
  %48 = getelementptr inbounds nuw i8, ptr %3, i64 8
  store ptr %spec.select6.i6, ptr %48, align 8, !tbaa !113
  %49 = getelementptr inbounds nuw i8, ptr %1, i64 112
  %50 = call noundef zeroext i1 @_ZN10chashtableISt4pairIPN3smt5enodeES3_EN12obj_pair_setIS2_S2_E9hash_procENS6_7eq_procEE20insert_if_not_there2ERKS4_(ptr noundef nonnull align 8 dereferenceable(64) %49, ptr noundef nonnull align 8 dereferenceable(16) %3)
  br i1 %50, label %51, label %70

51:                                               ; preds = %42
  %52 = getelementptr inbounds nuw i8, ptr %1, i64 104
  %53 = load ptr, ptr %52, align 8, !tbaa !114
  %54 = icmp eq ptr %53, null
  br i1 %54, label %61, label %55

55:                                               ; preds = %51
  %56 = getelementptr inbounds i8, ptr %53, i64 -4
  %57 = load i32, ptr %56, align 4, !tbaa !29
  %58 = getelementptr inbounds i8, ptr %53, i64 -8
  %59 = load i32, ptr %58, align 4, !tbaa !29
  %60 = icmp eq i32 %57, %59
  br i1 %60, label %61, label %_ZN6vectorISt4pairIPN3smt5enodeES3_ELb0EjE9push_backERKS4_.exit.i7

61:                                               ; preds = %55, %51
  call void @_ZN6vectorISt4pairIPN3smt5enodeES3_ELb0EjE13expand_vectorEv(ptr noundef nonnull align 8 dereferenceable(8) %52)
  %.pre.i.i8 = load ptr, ptr %52, align 8, !tbaa !114
  %.phi.trans.insert.i.i9 = getelementptr inbounds i8, ptr %.pre.i.i8, i64 -4
  %.pre2.i.i10 = load i32, ptr %.phi.trans.insert.i.i9, align 4, !tbaa !29
  br label %_ZN6vectorISt4pairIPN3smt5enodeES3_ELb0EjE9push_backERKS4_.exit.i7

_ZN6vectorISt4pairIPN3smt5enodeES3_ELb0EjE9push_backERKS4_.exit.i7: ; preds = %61, %55
  %62 = phi i32 [ %.pre2.i.i10, %61 ], [ %57, %55 ]
  %63 = phi ptr [ %.pre.i.i8, %61 ], [ %53, %55 ]
  %64 = zext i32 %62 to i64
  %65 = getelementptr inbounds nuw %"struct.std::pair", ptr %63, i64 %64
  call void @llvm.memcpy.p0.p0.i64(ptr noundef nonnull align 8 dereferenceable(16) %65, ptr noundef nonnull align 8 dereferenceable(16) %3, i64 16, i1 false)
  %66 = load ptr, ptr %52, align 8, !tbaa !114
  %67 = getelementptr inbounds i8, ptr %66, i64 -4
  %68 = load i32, ptr %67, align 4, !tbaa !29
  %69 = add i32 %68, 1
  store i32 %69, ptr %67, align 4, !tbaa !29
  br label %70

70:                                               ; preds = %_ZN6vectorISt4pairIPN3smt5enodeES3_ELb0EjE9push_backERKS4_.exit.i7, %42
  call void @llvm.lifetime.end.p0(i64 16, ptr nonnull %3) #22
  %.pre = load ptr, ptr %38, align 8, !tbaa !115
  br label %_ZN3smt19conflict_resolution7mark_eqEPNS_5enodeES2_.exit11

_ZN3smt19conflict_resolution7mark_eqEPNS_5enodeES2_.exit11: ; preds = %_ZN3smt19conflict_resolution7mark_eqEPNS_5enodeES2_.exit, %70
  %71 = phi ptr [ %39, %_ZN3smt19conflict_resolution7mark_eqEPNS_5enodeES2_.exit ], [ %.pre, %70 ]
  %72 = load ptr, ptr %5, align 8, !tbaa !93
  %73 = getelementptr inbounds nuw i8, ptr %0, i64 32
  %.sroa.0.0.copyload = load ptr, ptr %73, align 8, !tbaa !116
  call void @_ZN3smt19conflict_resolution25eq_justification2literalsEPNS_5enodeES2_NS_16eq_justificationE(ptr noundef nonnull align 8 dereferenceable(356) %1, ptr noundef %72, ptr noundef %71, ptr %.sroa.0.0.copyload)
  ret void
}